target datalayout = "e-m:e-p270:32:32-p271:32:32-p272:64:64-i64:64-i128:128-f80:128-n8:16:32:64-S128"
target triple = "x86_64-unknown-linux-gnu"

%"class.google::protobuf::internal::ExplicitlyConstructed" = type { %"union.google::protobuf::internal::ExplicitlyConstructed<std::__cxx11::basic_string<char>, 8>::AlignedUnion" }
%"union.google::protobuf::internal::ExplicitlyConstructed<std::__cxx11::basic_string<char>, 8>::AlignedUnion" = type { i64, [24 x i8] }
%"class.google::protobuf::internal::InternalMetadata" = type { i64 }
%"class.google::protobuf::internal::HasBits" = type { [1 x i32] }
%"class.google::protobuf::internal::CachedSize" = type { i32 }
%"struct.google::protobuf::internal::ArenaStringPtr" = type { %"class.google::protobuf::internal::TaggedStringPtr" }
%"class.google::protobuf::internal::TaggedStringPtr" = type { ptr }
%"class.google::protobuf::RepeatedField" = type { i32, i32, ptr }
%"class.google::protobuf::Message" = type { %"class.google::protobuf::MessageLite" }
%"class.google::protobuf::MessageLite" = type { ptr, %"class.google::protobuf::internal::InternalMetadata" }
%"class.google::protobuf::internal::InternalVisibility" = type { i8 }
%"class.absl::lts_20230802::log_internal::NullStream" = type { i8 }
%"class.google::protobuf::GeneratedCodeInfo_Annotation" = type { %"class.google::protobuf::Message", %union.anon.3 }
%union.anon.3 = type { %"struct.google::protobuf::GeneratedCodeInfo_Annotation::Impl_" }
%"struct.google::protobuf::GeneratedCodeInfo_Annotation::Impl_" = type <{ %"class.google::protobuf::internal::HasBits", %"class.google::protobuf::internal::CachedSize", %"class.google::protobuf::RepeatedField", %"class.google::protobuf::internal::CachedSize", [4 x i8], %"struct.google::protobuf::internal::ArenaStringPtr", i32, i32, i32, [4 x i8] }>
%"struct.google::protobuf::RepeatedField<int>::Rep" = type { %union.anon.200 }
%union.anon.200 = type { ptr }

@_ZN6google8protobuf8internal26fixed_address_empty_stringB5cxx11E = external global %"class.google::protobuf::internal::ExplicitlyConstructed", align 8
@_ZTVN6google8protobuf7MessageE = external unnamed_addr constant { [13 x ptr] }, align 8

; Function Attrs: mustprogress nounwind uwtable
define linkonce_odr hidden noundef nonnull align 1 dereferenceable(1) ptr @_ZN4absl12lts_2023080212log_internal10NullStream14InternalStreamEv(ptr noundef nonnull align 1 dereferenceable(1) %this) #5 comdat align 2 {
entry:
  %this.addr = alloca ptr, align 8
  store ptr %this, ptr %this.addr, align 8
  %this1 = load ptr, ptr %this.addr, align 8
  ret ptr %this1
}

; Function Attrs: mustprogress uwtable
define linkonce_odr hidden noundef ptr @_ZNK6google8protobuf13RepeatedFieldIiE8elementsEv(ptr noundef nonnull align 8 dereferenceable(16) %this) #4 comdat align 2 {
entry:
  %this.addr = alloca ptr, align 8
  %ref.tmp = alloca %"class.absl::lts_20230802::log_internal::NullStream", align 1
  store ptr %this, ptr %this.addr, align 8
  %this1 = load ptr, ptr %this.addr, align 8
  br label %while.cond

while.cond:                                       ; preds = %while.body, %entry
  br i1 false, label %while.body, label %while.end

while.body:                                       ; preds = %while.cond
  %call = call noundef nonnull align 1 dereferenceable(1) ptr @_ZN4absl12lts_2023080212log_internal10NullStream14InternalStreamEv(ptr noundef nonnull align 1 dereferenceable(1) %ref.tmp)
  br label %while.cond, !llvm.loop !209

while.end:                                        ; preds = %while.cond
  %call2 = call noundef ptr @_ZNK6google8protobuf13RepeatedFieldIiE15unsafe_elementsEv(ptr noundef nonnull align 8 dereferenceable(16) %this1)
  ret ptr %call2
}

; Function Attrs: mustprogress nounwind uwtable
define linkonce_odr hidden void @_ZN6google8protobuf8internal11SizedDeleteEPvm(ptr noundef %p, i64 noundef %size) #5 comdat {
entry:
  %p.addr = alloca ptr, align 8
  %size.addr = alloca i64, align 8
  store ptr %p, ptr %p.addr, align 8
  store i64 %size, ptr %size.addr, align 8
  %0 = load ptr, ptr %p.addr, align 8
  call void @_ZdlPv(ptr noundef %0) #3
  ret void
}

; Function Attrs: mustprogress uwtable
define linkonce_odr hidden noundef ptr @_ZNK6google8protobuf13RepeatedFieldIiE3repEv(ptr noundef nonnull align 8 dereferenceable(16) %this) #4 comdat align 2 {
entry:
  %this.addr = alloca ptr, align 8
  store ptr %this, ptr %this.addr, align 8
  %this1 = load ptr, ptr %this.addr, align 8
  %call = call noundef ptr @_ZNK6google8protobuf13RepeatedFieldIiE8elementsEv(ptr noundef nonnull align 8 dereferenceable(16) %this1)
  %add.ptr = getelementptr inbounds i8, ptr %call, i64 -8
  ret ptr %add.ptr
}

; Function Attrs: noreturn nounwind uwtable
define linkonce_odr hidden void @__clang_call_terminate(ptr noundef %0) #6 comdat {
  %2 = call ptr @__cxa_begin_catch(ptr %0) #3
  call void @_ZSt9terminatev() #17
  unreachable
}

; Function Attrs: mustprogress uwtable
define linkonce_odr hidden void @_ZN6google8protobuf13RepeatedFieldIiE18InternalDeallocateILb1EEEvv(ptr noundef nonnull align 8 dereferenceable(16) %this) #4 comdat align 2 {
entry:
  %this.addr = alloca ptr, align 8
  %bytes = alloca i64, align 8
  store ptr %this, ptr %this.addr, align 8
  %this1 = load ptr, ptr %this.addr, align 8
  %total_size_ = getelementptr inbounds %"class.google::protobuf::RepeatedField", ptr %this1, i32 0, i32 1
  %0 = load i32, ptr %total_size_, align 4
  %conv = sext i32 %0 to i64
  %mul = mul i64 %conv, 4
  %add = add i64 %mul, 8
  store i64 %add, ptr %bytes, align 8
  %call = call noundef ptr @_ZNK6google8protobuf13RepeatedFieldIiE3repEv(ptr noundef nonnull align 8 dereferenceable(16) %this1)
  %1 = getelementptr inbounds %"struct.google::protobuf::RepeatedField<int>::Rep", ptr %call, i32 0, i32 0
  %2 = load ptr, ptr %1, align 8
  %cmp = icmp eq ptr %2, null
  br i1 %cmp, label %if.then, label %if.else

if.then:                                          ; preds = %entry
  %call2 = call noundef ptr @_ZNK6google8protobuf13RepeatedFieldIiE3repEv(ptr noundef nonnull align 8 dereferenceable(16) %this1)
  %3 = load i64, ptr %bytes, align 8
  call void @_ZN6google8protobuf8internal11SizedDeleteEPvm(ptr noundef %call2, i64 noundef %3)
  br label %if.end

if.else:                                          ; preds = %entry
  br label %if.end

if.end:                                           ; preds = %if.else, %if.then
  ret void
}

; Function Attrs: mustprogress nounwind uwtable
define linkonce_odr hidden void @_ZN6google8protobuf13RepeatedFieldIiE7DestroyEPKiS4_(ptr noundef %begin, ptr noundef %end) #5 comdat align 2 {
entry:
  %begin.addr = alloca ptr, align 8
  %end.addr = alloca ptr, align 8
  store ptr %begin, ptr %begin.addr, align 8
  store ptr %end, ptr %end.addr, align 8
  ret void
}

; Function Attrs: mustprogress nounwind uwtable
define linkonce_odr hidden noundef ptr @_ZNK6google8protobuf13RepeatedFieldIiE15unsafe_elementsEv(ptr noundef nonnull align 8 dereferenceable(16) %this) #5 comdat align 2 {
entry:
  %this.addr = alloca ptr, align 8
  store ptr %this, ptr %this.addr, align 8
  %this1 = load ptr, ptr %this.addr, align 8
  %arena_or_elements_ = getelementptr inbounds %"class.google::protobuf::RepeatedField", ptr %this1, i32 0, i32 2
  %0 = load ptr, ptr %arena_or_elements_, align 8
  ret ptr %0
}

; Function Attrs: mustprogress nounwind uwtable
define linkonce_odr hidden void @_ZN6google8protobuf8internal15TaggedStringPtrC2EPNS1_21ExplicitlyConstructedINSt7__cxx1112basic_stringIcSt11char_traitsIcESaIcEEELm8EEE(ptr noundef nonnull align 8 dereferenceable(8) %this, ptr noundef %ptr) unnamed_addr #5 comdat align 2 {
entry:
  %this.addr = alloca ptr, align 8
  %ptr.addr = alloca ptr, align 8
  store ptr %this, ptr %this.addr, align 8
  store ptr %ptr, ptr %ptr.addr, align 8
  %this1 = load ptr, ptr %this.addr, align 8
  %ptr_ = getelementptr inbounds %"class.google::protobuf::internal::TaggedStringPtr", ptr %this1, i32 0, i32 0
  %0 = load ptr, ptr %ptr.addr, align 8
  store ptr %0, ptr %ptr_, align 8
  ret void
}

; Function Attrs: mustprogress nounwind uwtable
define linkonce_odr hidden void @_ZN6google8protobuf13RepeatedFieldIiEC2EPNS0_5ArenaE(ptr noundef nonnull align 8 dereferenceable(16) %this, ptr noundef %arena) unnamed_addr #5 comdat align 2 {
entry:
  %this.addr = alloca ptr, align 8
  %arena.addr = alloca ptr, align 8
  store ptr %this, ptr %this.addr, align 8
  store ptr %arena, ptr %arena.addr, align 8
  %this1 = load ptr, ptr %this.addr, align 8
  %current_size_ = getelementptr inbounds %"class.google::protobuf::RepeatedField", ptr %this1, i32 0, i32 0
  store i32 0, ptr %current_size_, align 8
  %total_size_ = getelementptr inbounds %"class.google::protobuf::RepeatedField", ptr %this1, i32 0, i32 1
  store i32 0, ptr %total_size_, align 4
  %arena_or_elements_ = getelementptr inbounds %"class.google::protobuf::RepeatedField", ptr %this1, i32 0, i32 2
  %0 = load ptr, ptr %arena.addr, align 8
  store ptr %0, ptr %arena_or_elements_, align 8
  ret void
}

; Function Attrs: mustprogress nounwind uwtable
define linkonce_odr hidden void @_ZN6google8protobuf8internal18InternalVisibilityC2Ev(ptr noundef nonnull align 1 dereferenceable(1) %this) unnamed_addr #5 comdat align 2 {
entry:
  %this.addr = alloca ptr, align 8
  store ptr %this, ptr %this.addr, align 8
  ret void
}

; Function Attrs: mustprogress nounwind uwtable
define linkonce_odr hidden void @_ZN6google8protobuf8internal16InternalMetadataC2EPNS0_5ArenaE(ptr noundef nonnull align 8 dereferenceable(8) %this, ptr noundef %arena) unnamed_addr #5 comdat align 2 {
entry:
  %this.addr = alloca ptr, align 8
  %arena.addr = alloca ptr, align 8
  store ptr %this, ptr %this.addr, align 8
  store ptr %arena, ptr %arena.addr, align 8
  %this1 = load ptr, ptr %this.addr, align 8
  %0 = load ptr, ptr %arena.addr, align 8
  %1 = ptrtoint ptr %0 to i64
  %ptr_ = getelementptr inbounds %"class.google::protobuf::internal::InternalMetadata", ptr %this1, i32 0, i32 0
  store i64 %1, ptr %ptr_, align 8
  ret void
}

; Function Attrs: mustprogress nounwind uwtable
define linkonce_odr hidden void @_ZN6google8protobuf11MessageLiteD2Ev(ptr noundef nonnull align 8 dereferenceable(16) %this) unnamed_addr #5 comdat align 2 {
entry:
  %this.addr = alloca ptr, align 8
  store ptr %this, ptr %this.addr, align 8
  ret void
}

; Function Attrs: mustprogress nounwind uwtable
define linkonce_odr hidden void @_ZN6google8protobuf13RepeatedFieldIiED2Ev(ptr noundef nonnull align 8 dereferenceable(16) %this) unnamed_addr #5 comdat align 2 personality ptr @__gxx_personality_v0 {
entry:
  %this.addr = alloca ptr, align 8
  store ptr %this, ptr %this.addr, align 8
  %this1 = load ptr, ptr %this.addr, align 8
  %total_size_ = getelementptr inbounds %"class.google::protobuf::RepeatedField", ptr %this1, i32 0, i32 1
  %0 = load i32, ptr %total_size_, align 4
  %cmp = icmp sgt i32 %0, 0
  br i1 %cmp, label %if.then, label %if.end

if.then:                                          ; preds = %entry
  %call = call noundef ptr @_ZNK6google8protobuf13RepeatedFieldIiE15unsafe_elementsEv(ptr noundef nonnull align 8 dereferenceable(16) %this1)
  %call2 = call noundef ptr @_ZNK6google8protobuf13RepeatedFieldIiE15unsafe_elementsEv(ptr noundef nonnull align 8 dereferenceable(16) %this1)
  %current_size_ = getelementptr inbounds %"class.google::protobuf::RepeatedField", ptr %this1, i32 0, i32 0
  %1 = load i32, ptr %current_size_, align 8
  %idx.ext = sext i32 %1 to i64
  %add.ptr = getelementptr inbounds i32, ptr %call2, i64 %idx.ext
  invoke void @_ZN6google8protobuf13RepeatedFieldIiE7DestroyEPKiS4_(ptr noundef %call, ptr noundef %add.ptr)
          to label %invoke.cont unwind label %terminate.lpad

invoke.cont:                                      ; preds = %if.then
  invoke void @_ZN6google8protobuf13RepeatedFieldIiE18InternalDeallocateILb1EEEvv(ptr noundef nonnull align 8 dereferenceable(16) %this1)
          to label %invoke.cont3 unwind label %terminate.lpad

invoke.cont3:                                     ; preds = %invoke.cont
  br label %if.end

if.end:                                           ; preds = %invoke.cont3, %entry
  ret void

terminate.lpad:                                   ; preds = %invoke.cont, %if.then
  %2 = landingpad { ptr, i32 }
          catch ptr null
  %3 = extractvalue { ptr, i32 } %2, 0
  call void @__clang_call_terminate(ptr %3) #17
  unreachable
}

; Function Attrs: mustprogress uwtable
define linkonce_odr hidden void @_ZN6google8protobuf8internal14ArenaStringPtrC2EPNS0_5ArenaE(ptr noundef nonnull align 8 dereferenceable(8) %this, ptr noundef %arena) unnamed_addr #4 comdat align 2 {
entry:
  %this.addr = alloca ptr, align 8
  %arena.addr = alloca ptr, align 8
  store ptr %this, ptr %this.addr, align 8
  store ptr %arena, ptr %arena.addr, align 8
  %this1 = load ptr, ptr %this.addr, align 8
  %tagged_ptr_ = getelementptr inbounds %"struct.google::protobuf::internal::ArenaStringPtr", ptr %this1, i32 0, i32 0
  call void @_ZN6google8protobuf8internal15TaggedStringPtrC2EPNS1_21ExplicitlyConstructedINSt7__cxx1112basic_stringIcSt11char_traitsIcESaIcEEELm8EEE(ptr noundef nonnull align 8 dereferenceable(8) %tagged_ptr_, ptr noundef @_ZN6google8protobuf8internal26fixed_address_empty_stringB5cxx11E)
  ret void
}

; Function Attrs: mustprogress uwtable
define linkonce_odr hidden void @_ZN6google8protobuf13RepeatedFieldIiEC2ENS0_8internal18InternalVisibilityEPNS0_5ArenaE(ptr noundef nonnull align 8 dereferenceable(16) %this, ptr noundef %arena) unnamed_addr #4 comdat align 2 {
entry:
  %this.addr = alloca ptr, align 8
  %arena.addr = alloca ptr, align 8
  store ptr %this, ptr %this.addr, align 8
  store ptr %arena, ptr %arena.addr, align 8
  %this1 = load ptr, ptr %this.addr, align 8
  %0 = load ptr, ptr %arena.addr, align 8
  call void @_ZN6google8protobuf13RepeatedFieldIiEC2EPNS0_5ArenaE(ptr noundef nonnull align 8 dereferenceable(16) %this1, ptr noundef %0)
  ret void
}

; Function Attrs: mustprogress nounwind uwtable
define linkonce_odr hidden void @_ZN6google8protobuf8internal10CachedSizeC2Ei(ptr noundef nonnull align 4 dereferenceable(4) %this, i32 noundef %desired) unnamed_addr #5 comdat align 2 {
entry:
  %this.addr = alloca ptr, align 8
  %desired.addr = alloca i32, align 4
  store ptr %this, ptr %this.addr, align 8
  store i32 %desired, ptr %desired.addr, align 4
  %this1 = load ptr, ptr %this.addr, align 8
  %atom_ = getelementptr inbounds %"class.google::protobuf::internal::CachedSize", ptr %this1, i32 0, i32 0
  %0 = load i32, ptr %desired.addr, align 4
  store i32 %0, ptr %atom_, align 4
  ret void
}

; Function Attrs: mustprogress uwtable
define linkonce_odr hidden void @_ZN6google8protobuf11MessageLite19internal_visibilityEv() #4 comdat align 2 {
entry:
  %retval = alloca %"class.google::protobuf::internal::InternalVisibility", align 1
  call void @_ZN6google8protobuf8internal18InternalVisibilityC2Ev(ptr noundef nonnull align 1 dereferenceable(1) %retval)
  ret void
}

; Function Attrs: mustprogress uwtable
define linkonce_odr hidden void @_ZN6google8protobuf11MessageLiteC2EPNS0_5ArenaE(ptr noundef nonnull align 8 dereferenceable(16) %this, ptr noundef %arena) unnamed_addr #4 comdat align 2 {
entry:
  %this.addr = alloca ptr, align 8
  %arena.addr = alloca ptr, align 8
  store ptr %this, ptr %this.addr, align 8
  store ptr %arena, ptr %arena.addr, align 8
  %this1 = load ptr, ptr %this.addr, align 8
  store ptr getelementptr inbounds ({ [12 x ptr] }, ptr @_ZTVN6google8protobuf11MessageLiteE, i32 0, i32 0, i32 2), ptr %this1, align 8
  %_internal_metadata_ = getelementptr inbounds %"class.google::protobuf::MessageLite", ptr %this1, i32 0, i32 1
  %0 = load ptr, ptr %arena.addr, align 8
  call void @_ZN6google8protobuf8internal16InternalMetadataC2EPNS0_5ArenaE(ptr noundef nonnull align 8 dereferenceable(8) %_internal_metadata_, ptr noundef %0)
  ret void
}

; Function Attrs: mustprogress nounwind uwtable
define linkonce_odr hidden void @_ZN6google8protobuf7MessageD2Ev(ptr noundef nonnull align 8 dereferenceable(16) %this) unnamed_addr #5 comdat align 2 {
entry:
  %this.addr = alloca ptr, align 8
  store ptr %this, ptr %this.addr, align 8
  %this1 = load ptr, ptr %this.addr, align 8
  call void @_ZN6google8protobuf11MessageLiteD2Ev(ptr noundef nonnull align 8 dereferenceable(16) %this1) #3
  ret void
}

; Function Attrs: mustprogress uwtable
define linkonce_odr hidden void @_ZN6google8protobuf28GeneratedCodeInfo_Annotation10SharedCtorEPNS0_5ArenaE(ptr noundef nonnull align 8 dereferenceable(72) %this, ptr noundef %arena) #4 comdat align 2 personality ptr @__gxx_personality_v0 {
entry:
  %this.addr.i.i = alloca ptr, align 8
  %this.addr.i = alloca ptr, align 8
  %arena.addr.i = alloca ptr, align 8
  %exn.slot.i = alloca ptr, align 8
  %ehselector.slot.i = alloca i32, align 4
  %this.addr = alloca ptr, align 8
  %arena.addr = alloca ptr, align 8
  store ptr %this, ptr %this.addr, align 8
  store ptr %arena, ptr %arena.addr, align 8
  %this1 = load ptr, ptr %this.addr, align 8
  %0 = getelementptr inbounds %"class.google::protobuf::GeneratedCodeInfo_Annotation", ptr %this1, i32 0, i32 1
  call void @_ZN6google8protobuf11MessageLite19internal_visibilityEv()
  %1 = load ptr, ptr %arena.addr, align 8
  store ptr %0, ptr %this.addr.i, align 8
  store ptr %1, ptr %arena.addr.i, align 8
  %this1.i = load ptr, ptr %this.addr.i, align 8
  store ptr %this1.i, ptr %this.addr.i.i, align 8
  %this1.i.i = load ptr, ptr %this.addr.i.i, align 8
  %arrayinit.end.i.i = getelementptr inbounds i32, ptr %this1.i.i, i64 1
  br label %arrayinit.body.i.i

arrayinit.body.i.i:                               ; preds = %arrayinit.body.i.i, %entry
  %arrayinit.cur.i.i = phi ptr [ %this1.i.i, %entry ], [ %arrayinit.next.i.i, %arrayinit.body.i.i ]
  store i32 0, ptr %arrayinit.cur.i.i, align 4
  %arrayinit.next.i.i = getelementptr inbounds i32, ptr %arrayinit.cur.i.i, i64 1
  %arrayinit.done.i.i = icmp eq ptr %arrayinit.next.i.i, %arrayinit.end.i.i
  br i1 %arrayinit.done.i.i, label %_ZN6google8protobuf8internal7HasBitsILi1EEC2Ev.exit.i, label %arrayinit.body.i.i

_ZN6google8protobuf8internal7HasBitsILi1EEC2Ev.exit.i: ; preds = %arrayinit.body.i.i
  %_cached_size_.i = getelementptr inbounds %"struct.google::protobuf::GeneratedCodeInfo_Annotation::Impl_", ptr %this1.i, i32 0, i32 1
  call void @_ZN6google8protobuf8internal10CachedSizeC2Ei(ptr noundef nonnull align 4 dereferenceable(4) %_cached_size_.i, i32 noundef 0) #3
  %path_.i = getelementptr inbounds %"struct.google::protobuf::GeneratedCodeInfo_Annotation::Impl_", ptr %this1.i, i32 0, i32 2
  %2 = load ptr, ptr %arena.addr.i, align 8
  call void @_ZN6google8protobuf13RepeatedFieldIiEC2ENS0_8internal18InternalVisibilityEPNS0_5ArenaE(ptr noundef nonnull align 8 dereferenceable(16) %path_.i, ptr noundef %2)
  %_path_cached_byte_size_.i = getelementptr inbounds %"struct.google::protobuf::GeneratedCodeInfo_Annotation::Impl_", ptr %this1.i, i32 0, i32 3
  call void @_ZN6google8protobuf8internal10CachedSizeC2Ei(ptr noundef nonnull align 4 dereferenceable(4) %_path_cached_byte_size_.i, i32 noundef 0) #3
  %source_file_.i = getelementptr inbounds %"struct.google::protobuf::GeneratedCodeInfo_Annotation::Impl_", ptr %this1.i, i32 0, i32 5
  %3 = load ptr, ptr %arena.addr.i, align 8
  invoke void @_ZN6google8protobuf8internal14ArenaStringPtrC2EPNS0_5ArenaE(ptr noundef nonnull align 8 dereferenceable(8) %source_file_.i, ptr noundef %3)
          to label %_ZN6google8protobuf28GeneratedCodeInfo_Annotation5Impl_C2ENS0_8internal18InternalVisibilityEPNS0_5ArenaE.exit unwind label %lpad.i

lpad.i:                                           ; preds = %_ZN6google8protobuf8internal7HasBitsILi1EEC2Ev.exit.i
  %4 = landingpad { ptr, i32 }
          cleanup
  %5 = extractvalue { ptr, i32 } %4, 0
  store ptr %5, ptr %exn.slot.i, align 8
  %6 = extractvalue { ptr, i32 } %4, 1
  store i32 %6, ptr %ehselector.slot.i, align 4
  call void @_ZN6google8protobuf13RepeatedFieldIiED2Ev(ptr noundef nonnull align 8 dereferenceable(16) %path_.i) #3
  %exn.i = load ptr, ptr %exn.slot.i, align 8
  %sel.i = load i32, ptr %ehselector.slot.i, align 4
  %lpad.val.i = insertvalue { ptr, i32 } poison, ptr %exn.i, 0
  %lpad.val2.i = insertvalue { ptr, i32 } %lpad.val.i, i32 %sel.i, 1
  resume { ptr, i32 } %lpad.val2.i

_ZN6google8protobuf28GeneratedCodeInfo_Annotation5Impl_C2ENS0_8internal18InternalVisibilityEPNS0_5ArenaE.exit: ; preds = %_ZN6google8protobuf8internal7HasBitsILi1EEC2Ev.exit.i
  %7 = getelementptr inbounds %"class.google::protobuf::GeneratedCodeInfo_Annotation", ptr %this1, i32 0, i32 1
  %add.ptr = getelementptr inbounds i8, ptr %7, i64 40
  call void @llvm.memset.p0.i64(ptr align 1 %add.ptr, i8 0, i64 12, i1 false)
  ret void
}

; Function Attrs: mustprogress uwtable
define linkonce_odr hidden void @_ZN6google8protobuf7MessageC2EPNS0_5ArenaE(ptr noundef nonnull align 8 dereferenceable(16) %this, ptr noundef %arena) unnamed_addr #4 comdat align 2 {
entry:
  %this.addr = alloca ptr, align 8
  %arena.addr = alloca ptr, align 8
  store ptr %this, ptr %this.addr, align 8
  store ptr %arena, ptr %arena.addr, align 8
  %this1 = load ptr, ptr %this.addr, align 8
  %0 = load ptr, ptr %arena.addr, align 8
  call void @_ZN6google8protobuf11MessageLiteC2EPNS0_5ArenaE(ptr noundef nonnull align 8 dereferenceable(16) %this1, ptr noundef %0)
  store ptr getelementptr inbounds ({ [13 x ptr] }, ptr @_ZTVN6google8protobuf7MessageE, i32 0, i32 0, i32 2), ptr %this1, align 8
  ret void
}

; Function Attrs: mustprogress uwtable
define void @_ZN6google8protobuf28GeneratedCodeInfo_AnnotationC2EPNS0_5ArenaE(ptr noundef nonnull align 8 dereferenceable(72) %this, ptr noundef %arena) unnamed_addr #4 align 2 personality ptr @__gxx_personality_v0 {
entry:
  %this.addr = alloca ptr, align 8
  %arena.addr = alloca ptr, align 8
  %exn.slot = alloca ptr, align 8
  %ehselector.slot = alloca i32, align 4
  store ptr %this, ptr %this.addr, align 8
  store ptr %arena, ptr %arena.addr, align 8
  %this1 = load ptr, ptr %this.addr, align 8
  %0 = load ptr, ptr %arena.addr, align 8
  call void @_ZN6google8protobuf7MessageC2EPNS0_5ArenaE(ptr noundef nonnull align 8 dereferenceable(16) %this1, ptr noundef %0)
  store ptr getelementptr inbounds ({ [13 x ptr] }, ptr @_ZTVN6google8protobuf28GeneratedCodeInfo_AnnotationE, i32 0, i32 0, i32 2), ptr %this1, align 8
  %1 = load ptr, ptr %arena.addr, align 8
  invoke void @_ZN6google8protobuf28GeneratedCodeInfo_Annotation10SharedCtorEPNS0_5ArenaE(ptr noundef nonnull align 8 dereferenceable(72) %this1, ptr noundef %1)
          to label %invoke.cont unwind label %lpad

invoke.cont:                                      ; preds = %entry
  ret void

lpad:                                             ; preds = %entry
  %2 = landingpad { ptr, i32 }
          cleanup
  %3 = extractvalue { ptr, i32 } %2, 0
  store ptr %3, ptr %exn.slot, align 8
  %4 = extractvalue { ptr, i32 } %2, 1
  store i32 %4, ptr %ehselector.slot, align 4
  call void @_ZN6google8protobuf7MessageD2Ev(ptr noundef nonnull align 8 dereferenceable(16) %this1) #3
  br label %eh.resume

eh.resume:                                        ; preds = %lpad
  %exn = load ptr, ptr %exn.slot, align 8
  %sel = load i32, ptr %ehselector.slot, align 4
  %lpad.val = insertvalue { ptr, i32 } poison, ptr %exn, 0
  %lpad.val2 = insertvalue { ptr, i32 } %lpad.val, i32 %sel, 1
  resume { ptr, i32 } %lpad.val2
}